target datalayout = "e-m:e-p270:32:32-p271:32:32-p272:64:64-i64:64-i128:128-f80:128-n8:16:32:64-S128"
target triple = "x86_64-pc-linux-gnu"

%struct.Pdr_Set_t_ = type { i64, i32, i32, i32, [0 x i32] }
%struct.Pdr_Obl_t_ = type { i32, i32, i32, ptr, ptr, ptr }

; Function Attrs: nounwind uwtable
define void @Pdr_SetDeref(ptr noundef %0) #0 {
  %2 = alloca ptr, align 8
  store ptr %0, ptr %2, align 8
  %3 = load ptr, ptr %2, align 8
  %4 = getelementptr inbounds %struct.Pdr_Set_t_, ptr %3, i32 0, i32 1
  %5 = load i32, ptr %4, align 8
  %6 = add nsw i32 %5, -1
  store i32 %6, ptr %4, align 8
  %7 = icmp eq i32 %6, 0
  br i1 %7, label %8, label %15

8:                                                ; preds = %1
  %9 = load ptr, ptr %2, align 8
  %10 = icmp ne ptr %9, null
  br i1 %10, label %11, label %13

11:                                               ; preds = %8
  %12 = load ptr, ptr %2, align 8
  call void @free(ptr noundef %12) #11
  store ptr null, ptr %2, align 8
  br label %14

13:                                               ; preds = %8
  br label %14

14:                                               ; preds = %13, %11
  br label %15

15:                                               ; preds = %14, %1
  ret void
}

; Function Attrs: nounwind uwtable
define void @Pdr_OblDeref(ptr noundef %0) #0 {
  %2 = alloca ptr, align 8
  store ptr %0, ptr %2, align 8
  %3 = load ptr, ptr %2, align 8
  %4 = getelementptr inbounds %struct.Pdr_Obl_t_, ptr %3, i32 0, i32 2
  %5 = load i32, ptr %4, align 8
  %6 = add nsw i32 %5, -1
  store i32 %6, ptr %4, align 8
  %7 = icmp eq i32 %6, 0
  br i1 %7, label %8, label %27

8:                                                ; preds = %1
  %9 = load ptr, ptr %2, align 8
  %10 = getelementptr inbounds %struct.Pdr_Obl_t_, ptr %9, i32 0, i32 4
  %11 = load ptr, ptr %10, align 8
  %12 = icmp ne ptr %11, null
  br i1 %12, label %13, label %17

13:                                               ; preds = %8
  %14 = load ptr, ptr %2, align 8
  %15 = getelementptr inbounds %struct.Pdr_Obl_t_, ptr %14, i32 0, i32 4
  %16 = load ptr, ptr %15, align 8
  call void @Pdr_OblDeref(ptr noundef %16)
  br label %17

17:                                               ; preds = %13, %8
  %18 = load ptr, ptr %2, align 8
  %19 = getelementptr inbounds %struct.Pdr_Obl_t_, ptr %18, i32 0, i32 3
  %20 = load ptr, ptr %19, align 8
  call void @Pdr_SetDeref(ptr noundef %20)
  %21 = load ptr, ptr %2, align 8
  %22 = icmp ne ptr %21, null
  br i1 %22, label %23, label %25

23:                                               ; preds = %17
  %24 = load ptr, ptr %2, align 8
  call void @free(ptr noundef %24) #11
  store ptr null, ptr %2, align 8
  br label %26

25:                                               ; preds = %17
  br label %26

26:                                               ; preds = %25, %23
  br label %27

27:                                               ; preds = %26, %1
  ret void
}