; Function Attrs: nounwind uwtable
define void @Pdr_OblDeref(ptr noundef captures(none) %0) local_unnamed_addr #9 {
  %2 = getelementptr inbounds nuw i8, ptr %0, i64 8
  %3 = load i32, ptr %2, align 8
  %4 = add nsw i32 %3, -1
  store i32 %4, ptr %2, align 8
  %5 = icmp eq i32 %4, 0
  br i1 %5, label %6, label %19

6:                                                ; preds = %1
  %7 = getelementptr inbounds nuw i8, ptr %0, i64 24
  %8 = load ptr, ptr %7, align 8
  %.not = icmp eq ptr %8, null
  br i1 %.not, label %10, label %9

9:                                                ; preds = %6
  tail call void @Pdr_OblDeref(ptr noundef nonnull %8)
  br label %10

10:                                               ; preds = %9, %6
  %11 = getelementptr inbounds nuw i8, ptr %0, i64 16
  %12 = load ptr, ptr %11, align 8
  %13 = getelementptr inbounds nuw i8, ptr %12, i64 8
  %14 = load i32, ptr %13, align 8
  %15 = add nsw i32 %14, -1
  store i32 %15, ptr %13, align 8
  %16 = icmp eq i32 %15, 0
  %17 = icmp ne ptr %12, null
  %or.cond.i = and i1 %17, %16
  br i1 %or.cond.i, label %18, label %Pdr_SetDeref.exit

18:                                               ; preds = %10
  tail call void @free(ptr noundef nonnull %12) #27
  br label %Pdr_SetDeref.exit

Pdr_SetDeref.exit:                                ; preds = %18, %10
  tail call void @free(ptr noundef nonnull %0) #27
  br label %19

19:                                               ; preds = %Pdr_SetDeref.exit, %1
  ret void
}